; ModuleID = 'bench/openusd/original/reporterDataSourceBase.cpp.ll'
source_filename = "bench/openusd/original/reporterDataSourceBase.cpp.ll"
target datalayout = "e-m:e-p270:32:32-p271:32:32-p272:64:64-i64:64-i128:128-f80:128-n8:16:32:64-S128"
target triple = "x86_64-pc-linux-gnu"

@_ZTVN32pxrInternal_v0_24__pxrReserved__27TraceReporterDataSourceBaseE = unnamed_addr constant { [6 x ptr] } { [6 x ptr] [ptr null, ptr @_ZTIN32pxrInternal_v0_24__pxrReserved__27TraceReporterDataSourceBaseE, ptr @_ZN32pxrInternal_v0_24__pxrReserved__27TraceReporterDataSourceBaseD1Ev, ptr @_ZN32pxrInternal_v0_24__pxrReserved__27TraceReporterDataSourceBaseD0Ev, ptr @__cxa_pure_virtual, ptr @__cxa_pure_virtual] }, align 8
@_ZTVN10__cxxabiv117__class_type_infoE = external global [0 x ptr]
@_ZTSN32pxrInternal_v0_24__pxrReserved__27TraceReporterDataSourceBaseE = constant [66 x i8] c"N32pxrInternal_v0_24__pxrReserved__27TraceReporterDataSourceBaseE\00", align 1
@_ZTIN32pxrInternal_v0_24__pxrReserved__27TraceReporterDataSourceBaseE = constant { ptr, ptr } { ptr getelementptr inbounds (ptr, ptr @_ZTVN10__cxxabiv117__class_type_infoE, i64 2), ptr @_ZTSN32pxrInternal_v0_24__pxrReserved__27TraceReporterDataSourceBaseE }, align 8

@_ZN32pxrInternal_v0_24__pxrReserved__27TraceReporterDataSourceBaseD1Ev = unnamed_addr alias void (ptr), ptr @_ZN32pxrInternal_v0_24__pxrReserved__27TraceReporterDataSourceBaseD2Ev

; Function Attrs: mustprogress nofree norecurse nosync nounwind willreturn memory(none) uwtable
define void @_ZN32pxrInternal_v0_24__pxrReserved__27TraceReporterDataSourceBaseD2Ev(ptr nocapture nonnull readnone align 8 %0) unnamed_addr #0 align 2 {
  ret void
}

; Function Attrs: cold mustprogress noreturn nounwind memory(inaccessiblemem: write) uwtable
define void @_ZN32pxrInternal_v0_24__pxrReserved__27TraceReporterDataSourceBaseD0Ev(ptr nocapture nonnull readnone align 8 %0) unnamed_addr #1 align 2 {
  tail call void @llvm.trap() #3
  unreachable
}

; Function Attrs: cold noreturn nounwind memory(inaccessiblemem: write)
declare void @llvm.trap() #2

declare void @__cxa_pure_virtual() unnamed_addr


!llvm.module.flags = !{!0, !1, !2, !3}

!0 = !{i32 1, !"wchar_size", i32 4}
!1 = !{i32 8, !"PIC Level", i32 2}
!2 = !{i32 7, !"uwtable", i32 2}
!3 = !{i32 7, !"frame-pointer", i32 2}
